; ModuleID = '16/1376.c'
source_filename = "16/1376.c"
target datalayout = "e-m:e-p270:32:32-p271:32:32-p272:64:64-i64:64-f80:128-n8:16:32:64-S128"
target triple = "x86_64-pc-linux-gnu"

@.str = private unnamed_addr constant [3 x i8] c"%d\00", align 1

; Function Attrs: noinline nounwind uwtable
define dso_local i32 @main() #0 {
  %1 = alloca i32, align 4
  %2 = alloca i32, align 4
  %3 = alloca i32, align 4
  %4 = alloca i32, align 4
  store i32 0, i32* %1, align 4
  %5 = call i32 (i8*, ...) @__isoc99_scanf(i8* getelementptr inbounds ([3 x i8], [3 x i8]* @.str, i64 0, i64 0), i32* %2)
  %6 = load i32, i32* %2, align 4
  %7 = srem i32 %6, 10
  store i32 %7, i32* %3, align 4
  %8 = load i32, i32* %2, align 4
  %9 = sdiv i32 %8, 10
  store i32 %9, i32* %4, align 4
  %10 = load i32, i32* %3, align 4
  %11 = call i32 (i8*, ...) @printf(i8* getelementptr inbounds ([3 x i8], [3 x i8]* @.str, i64 0, i64 0), i32 %10)
  br label %12

12:                                               ; preds = %15, %0
  %13 = load i32, i32* %4, align 4
  %14 = icmp sgt i32 %13, 0
  br i1 %14, label %15, label %22

15:                                               ; preds = %12
  %16 = load i32, i32* %4, align 4
  %17 = srem i32 %16, 10
  store i32 %17, i32* %3, align 4
  %18 = load i32, i32* %4, align 4
  %19 = sdiv i32 %18, 10
  store i32 %19, i32* %4, align 4
  %20 = load i32, i32* %3, align 4
  %21 = call i32 (i8*, ...) @printf(i8* getelementptr inbounds ([3 x i8], [3 x i8]* @.str, i64 0, i64 0), i32 %20)
  br label %12

22:                                               ; preds = %12
  %23 = load i32, i32* %1, align 4
  ret i32 %23
}

declare dso_local i32 @__isoc99_scanf(i8*, ...) #1

declare dso_local i32 @printf(i8*, ...) #1


!llvm.module.flags = !{!0}
!llvm.ident = !{!1}

!0 = !{i32 1, !"wchar_size", i32 4}
!1 = !{!"clang version 10.0.0-4ubuntu1 "}
